target datalayout = "e-m:e-p270:32:32-p271:32:32-p272:64:64-i64:64-i128:128-f80:128-n8:16:32:64-S128"
target triple = "x86_64-pc-linux-gnu"

%struct.PageHeaderData = type { %struct.PageXLogRecPtr, i16, i16, i16, i16, i16, i16, i32, [0 x %struct.ItemIdData] }
%struct.PageXLogRecPtr = type { i32, i32 }
%struct.ItemIdData = type { i32 }
%struct.GISTPageOpaqueData = type { %struct.PageXLogRecPtr, i32, i16, i16 }
%struct.FullTransactionId = type { i64 }
%struct.GISTDeletedPageContents = type { %struct.FullTransactionId }

; Function Attrs: inlinehint nounwind uwtable
define internal i64 @FullTransactionIdFromEpochAndXid(i32 noundef %0, i32 noundef %1) #2 {
  %3 = alloca %struct.FullTransactionId, align 8
  %4 = alloca i32, align 4
  %5 = alloca i32, align 4
  store i32 %0, ptr %4, align 4
  store i32 %1, ptr %5, align 4
  %6 = load i32, ptr %4, align 4
  %7 = zext i32 %6 to i64
  %8 = shl i64 %7, 32
  %9 = load i32, ptr %5, align 4
  %10 = zext i32 %9 to i64
  %11 = or i64 %8, %10
  %12 = getelementptr inbounds nuw %struct.FullTransactionId, ptr %3, i32 0, i32 0
  store i64 %11, ptr %12, align 8
  %13 = getelementptr inbounds nuw %struct.FullTransactionId, ptr %3, i32 0, i32 0
  %14 = load i64, ptr %13, align 8
  ret i64 %14
}

; Function Attrs: inlinehint nounwind uwtable
define internal ptr @PageGetContents(ptr noundef %0) #2 {
  %2 = alloca ptr, align 8
  store ptr %0, ptr %2, align 8
  %3 = load ptr, ptr %2, align 8
  %4 = getelementptr inbounds nuw i8, ptr %3, i64 24
  ret ptr %4
}

; Function Attrs: inlinehint nounwind uwtable
define internal i64 @GistPageGetDeleteXid(ptr noundef %0) #2 {
  %2 = alloca %struct.FullTransactionId, align 8
  %3 = alloca ptr, align 8
  store ptr %0, ptr %3, align 8
  %4 = load ptr, ptr %3, align 8
  %5 = getelementptr inbounds nuw %struct.PageHeaderData, ptr %4, i32 0, i32 3
  %6 = load i16, ptr %5, align 4
  %7 = zext i16 %6 to i64
  %8 = icmp uge i64 %7, 32
  br i1 %8, label %9, label %13

9:                                                ; preds = %1
  %10 = load ptr, ptr %3, align 8
  %11 = call ptr @PageGetContents(ptr noundef %10)
  %12 = getelementptr inbounds nuw %struct.GISTDeletedPageContents, ptr %11, i32 0, i32 0
  call void @llvm.memcpy.p0.p0.i64(ptr align 8 %2, ptr align 8 %12, i64 8, i1 false)
  br label %16

13:                                               ; preds = %1
  %14 = call i64 @FullTransactionIdFromEpochAndXid(i32 noundef 0, i32 noundef 3)
  %15 = getelementptr inbounds nuw %struct.FullTransactionId, ptr %2, i32 0, i32 0
  store i64 %14, ptr %15, align 8
  br label %16

16:                                               ; preds = %13, %9
  %17 = getelementptr inbounds nuw %struct.FullTransactionId, ptr %2, i32 0, i32 0
  %18 = load i64, ptr %17, align 8
  ret i64 %18
}

; Function Attrs: inlinehint nounwind uwtable
define internal void @PageValidateSpecialPointer(ptr noundef %0) #2 {
  %2 = alloca ptr, align 8
  store ptr %0, ptr %2, align 8
  ret void
}

; Function Attrs: inlinehint nounwind uwtable
define internal zeroext i1 @PageIsNew(ptr noundef %0) #2 {
  %2 = alloca ptr, align 8
  store ptr %0, ptr %2, align 8
  %3 = load ptr, ptr %2, align 8
  %4 = getelementptr inbounds nuw %struct.PageHeaderData, ptr %3, i32 0, i32 4
  %5 = load i16, ptr %4, align 2
  %6 = zext i16 %5 to i32
  %7 = icmp eq i32 %6, 0
  ret i1 %7
}

; Function Attrs: nounwind uwtable
define dso_local zeroext i1 @gistPageRecyclable(ptr noundef %0) #0 {
  %2 = alloca i1, align 1
  %3 = alloca ptr, align 8
  %4 = alloca %struct.FullTransactionId, align 8
  store ptr %0, ptr %3, align 8
  %5 = load ptr, ptr %3, align 8
  %6 = call zeroext i1 @PageIsNew(ptr noundef %5)
  br i1 %6, label %7, label %8

7:                                                ; preds = %1
  store i1 true, ptr %2, align 1
  br label %30

8:                                                ; preds = %1
  %9 = load ptr, ptr %3, align 8
  call void @PageValidateSpecialPointer(ptr noundef %9)
  %10 = load ptr, ptr %3, align 8
  %11 = load ptr, ptr %3, align 8
  %12 = getelementptr inbounds nuw %struct.PageHeaderData, ptr %11, i32 0, i32 5
  %13 = load i16, ptr %12, align 4
  %14 = zext i16 %13 to i32
  %15 = sext i32 %14 to i64
  %16 = getelementptr inbounds i8, ptr %10, i64 %15
  %17 = getelementptr inbounds nuw %struct.GISTPageOpaqueData, ptr %16, i32 0, i32 2
  %18 = load i16, ptr %17, align 4
  %19 = zext i16 %18 to i32
  %20 = and i32 %19, 2
  %21 = icmp ne i32 %20, 0
  br i1 %21, label %22, label %29

22:                                               ; preds = %8
  call void @llvm.lifetime.start.p0(i64 8, ptr %4) #8
  %23 = load ptr, ptr %3, align 8
  %24 = call i64 @GistPageGetDeleteXid(ptr noundef %23)
  %25 = getelementptr inbounds nuw %struct.FullTransactionId, ptr %4, i32 0, i32 0
  store i64 %24, ptr %25, align 8
  %26 = getelementptr inbounds nuw %struct.FullTransactionId, ptr %4, i32 0, i32 0
  %27 = load i64, ptr %26, align 8
  %28 = call zeroext i1 @GlobalVisCheckRemovableFullXid(ptr noundef null, i64 %27)
  store i1 %28, ptr %2, align 1
  call void @llvm.lifetime.end.p0(i64 8, ptr %4) #8
  br label %30

29:                                               ; preds = %8
  store i1 false, ptr %2, align 1
  br label %30

30:                                               ; preds = %29, %22, %7
  %31 = load i1, ptr %2, align 1
  ret i1 %31
}