; Function Attrs: nounwind uwtable
define dso_local zeroext i1 @gistPageRecyclable(ptr noundef readonly captures(none) %0) local_unnamed_addr #0 {
  %2 = getelementptr i8, ptr %0, i64 14
  %.val = load i16, ptr %2, align 2
  %3 = icmp eq i16 %.val, 0
  br i1 %3, label %19, label %4

4:                                                ; preds = %1
  %5 = getelementptr inbounds nuw i8, ptr %0, i64 16
  %6 = load i16, ptr %5, align 4
  %7 = zext i16 %6 to i64
  %8 = getelementptr inbounds nuw i8, ptr %0, i64 %7
  %9 = getelementptr inbounds nuw i8, ptr %8, i64 12
  %10 = load i16, ptr %9, align 4
  %11 = and i16 %10, 2
  %.not = icmp eq i16 %11, 0
  br i1 %.not, label %19, label %12

12:                                               ; preds = %4
  %13 = getelementptr inbounds nuw i8, ptr %0, i64 12
  %14 = load i16, ptr %13, align 4
  %15 = icmp ugt i16 %14, 31
  br i1 %15, label %16, label %GistPageGetDeleteXid.exit

16:                                               ; preds = %12
  %17 = getelementptr inbounds nuw i8, ptr %0, i64 24
  %.sroa.0.0.copyload.i = load i64, ptr %17, align 8
  br label %GistPageGetDeleteXid.exit

GistPageGetDeleteXid.exit:                        ; preds = %12, %16
  %.sroa.0.0.i = phi i64 [ %.sroa.0.0.copyload.i, %16 ], [ 3, %12 ]
  %18 = tail call zeroext i1 @GlobalVisCheckRemovableFullXid(ptr noundef null, i64 %.sroa.0.0.i) #11
  br label %19

19:                                               ; preds = %4, %1, %GistPageGetDeleteXid.exit
  %.0 = phi i1 [ %18, %GistPageGetDeleteXid.exit ], [ true, %1 ], [ false, %4 ]
  ret i1 %.0
}